; Function Attrs: nounwind uwtable
define void @glfwSetJoystickUserPointer(i32 noundef %0, ptr noundef %1) local_unnamed_addr #0 {
  %3 = load i32, ptr @_glfw, align 8, !tbaa !170
  %.not = icmp eq i32 %3, 0
  br i1 %.not, label %4, label %5

4:                                                ; preds = %2
  tail call void (i32, ptr, ...) @_glfwInputError(i32 noundef 65537, ptr noundef null) #12
  br label %11

5:                                                ; preds = %2
  %6 = sext i32 %0 to i64
  %7 = getelementptr inbounds %struct._GLFWjoystick, ptr getelementptr inbounds nuw (i8, ptr @_glfw, i64 1936), i64 %6
  %8 = load i32, ptr %7, align 8, !tbaa !163
  %.not3 = icmp eq i32 %8, 0
  br i1 %.not3, label %11, label %9

9:                                                ; preds = %5
  %10 = getelementptr inbounds nuw i8, ptr %7, i64 184
  store ptr %1, ptr %10, align 8, !tbaa !202
  br label %11

11:                                               ; preds = %5, %9, %4
  ret void
}